ccollections
defaultdict
p0
(tRp1
F1041601.0
(lp2
S'RT @juliettekayyem: Slow down all. 2 rumors already slammed. No attack at Kennedy library. No one at hospital under questioning.  #bosto ...'
p3
ag3
ag3
ag3
ag3
ag3
ag3
ag3
ag3
ag3
ag3
ag3
ag3
ag3
ag3
ag3
ag3
ag3
ag3
ag3
ag3
ag3
ag3
ag3
ag3
ag3
ag3
ag3
ag3
ag3
ag3
ag3
ag3
ag3
ag3
ag3
aS'RT @fravel: RT @juliettekayyem: Slow down all. 2 rumors already slammed. No attack at Kennedy library. No one at hospital under questioning.'
p4
ag4
ag4
ag4
ag4
ag4
ag4
ag4
ag4
ag4
ag4
ag4
ag4
ag4
ag4
ag4
ag4
ag4
ag3
ag3
ag3
ag3
ag3
ag3
ag3
ag3
ag3
ag3
ag3
ag3
ag3
ag3
ag3
ag3
ag3
ag3
asF3041611.0
(lp5
S'An 8 year old girl did not die in the explosions. Stop spreading rumors. That is disrespectful to her as well as her family'
p6
ag6
ag6
ag6
ag6
ag6
ag6
ag6
ag6
ag6
ag6
ag6
ag6
ag6
ag6
ag6
ag6
ag6
ag6
ag6
ag6
ag6
ag6
ag6
aS'RT @craicly: An 8 year old girl did not die in the explosions. Stop spreading rumors. That is disrespectful to her as well as her family'
p7
ag7
ag7
ag7
ag7
ag7
ag7
ag7
ag7
ag7
ag7
ag7
ag7
ag7
ag7
ag7
ag7
ag7
ag7
ag7
ag7
ag7
ag7
ag7
ag7
ag7
ag7
ag7
ag7
ag7
ag7
ag7
ag7
ag7
ag7
ag7
ag7
ag7
ag7
ag7
ag7
ag7
ag7
ag7
ag7
ag7
ag7
ag7
ag7
ag7
ag7
ag7
ag7
ag7
ag7
ag7
ag7
ag7
ag7
ag7
ag7
ag7
ag7
ag7
ag7
ag7
ag7
ag7
ag7
ag7
ag7
ag7
ag7
ag7
ag7
ag7
ag7
ag7
ag7
ag7
ag7
ag7
ag7
ag7
ag7
ag7
ag7
ag7
ag7
ag7
ag7
ag7
ag7
ag7
ag7
ag7
asF2042017.0
(lp8
S'WHAT!? "@4thAnon: Waco Texas Fertilizer Company Hit By Drone/Laser Strike After Lawsuit Filed Against #Monsanto! http://t.co/jt1OYi6K4p"'
p9
ag9
ag9
ag9
ag9
ag9
ag9
ag9
ag9
ag9
ag9
ag9
ag9
ag9
ag9
ag9
ag9
ag9
aS'RT @Motoringhome: WHAT!? "@4thAnon: Waco Texas Fertilizer Company Hit By Drone/Laser Strike After Lawsuit Filed Against #Monsanto! http://t'
p10
ag10
ag10
ag10
ag10
ag10
ag10
ag10
ag10
ag10
ag10
ag10
ag10
ag10
ag10
ag10
ag10
ag10
ag10
ag10
ag10
ag10
ag10
ag10
aS'#Waco Texas Fertilizer Company Hit By Drone/Laser Strike After Lawsuit Filed Against #Monsanto http://t.co/vOyaDoKMeI'
p11
ag11
ag11
ag11
ag11
ag11
ag11
ag11
ag11
aS'Waco Texas Fertilizer Company Hit By Drone/Laser Strike After Lawsuit Filed Against Monsanto!: http://t.co/BGLhrdmFDs via @Volubrjotr'
p12
ag12
ag12
ag12
ag12
ag12
ag12
ag12
ag12
aS'RT @Star_Fawkes: #Waco Texas Fertilizer Company Hit By Drone/Laser Strike After Lawsuit Filed Against #Monsanto http://t.co/vOyaDoKMeI'
p13
ag13
ag13
ag13
ag13
ag13
ag13
ag13
ag13
aS'Waco Texas Fertilizer Company Hit By Drone/Laser Strike After Lawsuit Filed Against Monsanto! http://t.co/kCAG9h6bxo'
p14
ag14
ag14
ag14
ag14
ag14
ag14
ag14
ag14
aS'WACO TEXAS FERTILIZER COMPANY HIT BY DRONE/LASER STRIKE AFTER LAWSUIT FILED AGAINST MONSANTO!As details emerge... http://t.co/YkN377D1Ad'
p15
ag15
ag15
ag15
ag15
ag15
ag15
ag15
ag15
aS'Waco Texas Fertilizer Company Hit By Drone/Laser Strike After Lawsuit Filed Against Monsanto! http://t.co/TatER3sQiW'
p16
ag16
ag16
ag16
ag16
ag16
ag16
ag16
ag16
aS'Waco Texas Fertilizer Company Hit By Drone/Laser Strike After Lawsuit Filed Against Monsanto! http://t.co/kqjddz9zDO'
p17
ag17
ag17
ag17
ag17
ag17
ag17
ag17
ag17
aS'Waco Texas Fertilizer Company Hit By Drone/Laser Strike After Lawsuit Filed Against Monsanto! http://t.co/SOnl3iN7fr'
p18
ag18
ag18
ag18
ag18
ag18
ag18
ag18
ag18
aS'Waco Texas Fertilizer Company Hit By Drone/Laser Strike After Lawsuit Filed Against Monsanto! http://t.co/ASrlljcazW'
p19
ag19
ag19
ag19
ag19
ag19
ag19
ag19
ag19
aS'Waco Texas Fertilizer Company Hit By Drone/Laser Strike After Lawsuit Filed Against Monsanto! http://t.co/HItoQ9dpke'
p20
ag20
ag20
ag20
ag20
ag20
ag20
ag20
ag20
aS'Waco Texas Fertilizer Company Hit By Drone/Laser Strike After Lawsuit Filed Against Monsanto! http://t.co/s5p0NnNI8Q'
p21
ag21
ag21
ag21
ag21
ag21
ag21
ag21
ag21
aS'Waco Texas Fertilizer Company Hit By Drone/Laser Strike After Lawsuit Filed Against Monsanto!- http://t.co/6HfE3BXQw7 @SenTedCruz #Obama'
p22
ag22
ag22
ag22
ag22
ag22
ag22
ag22
ag22
aS'Waco Texas Fertilizer Company Hit By Drone/Laser Strike After Lawsuit Filed Against Monsanto! http://t.co/uGK7iCtEgr'
p23
ag23
ag23
ag23
ag23
ag23
ag23
ag23
ag23
aS'WTH? Waco Texas Fertilizer Company Hit By Drone/Laser Strike After Lawsuit Filed Against Monsanto! | http://t.co/woCPvFOJPc'
p24
ag24
ag24
ag24
ag24
ag24
ag24
ag24
ag24
aS'Waco Texas Fertilizer Company Hit By Drone/Laser Strike After Lawsuit Filed Against Monsanto!: http://t.co/3sBziAS7Mz via @Volubrjotr'
p25
ag25
ag25
ag25
ag25
ag25
ag25
ag25
ag25
aS'Waco Texas Fertilizer Company Hit By Drone/Laser Strike After Lawsuit Filed Against Monsanto!: http://t.co/2uWfsI5vEf via @Volubrjotr'
p26
ag26
ag26
ag26
ag26
ag26
ag26
ag26
ag26
aS'Waco Texas Fertilizer Company Hit By Drone/Laser Strike After Lawsuit Filed Against Monsanto!  http://t.co/2ILM5g5dZY'
p27
ag27
ag27
ag27
ag27
ag27
ag27
ag27
ag27
aS'Waco Texas Fertilizer Company Hit By Drone/Laser Strike After Lawsuit Filed Against Monsanto! http://t.co/5PWxKxdiJR'
p28
ag28
ag28
ag28
ag28
ag28
ag28
ag28
ag28
aS'Waco Texas Fertilizer Company Hit By Drone/Laser Strike After Lawsuit Filed Against Monsanto! http://t.co/fUWYIsKaQJ'
p29
ag29
ag29
ag29
ag29
ag29
ag29
ag29
ag29
aS'Waco Texas Fertilizer Company Hit By Drone/Laser Strike After Lawsuit Filed Against Monsanto! http://t.co/8S4tIT2kui'
p30
ag30
ag30
ag30
ag30
ag30
ag30
ag30
ag30
aS'WACO TEXAS FERTILIZER COMPANY HIT BY DRONE/LASER STRIKE AFTER LAWSUIT FILED AGAINST MONSANTO!As details emerge... http://t.co/nvvnqMovcz'
p31
ag31
ag31
ag31
ag31
ag31
ag31
ag31
ag31
aS'Waco Texas Fertilizer Company Hit By Drone/Laser Strike After Lawsuit Filed Against Monsanto!: http://t.co/jDvrP8b4AK via @Volubrjotr'
p32
ag32
ag32
ag32
ag32
ag32
ag32
ag32
ag32
aS'WorldTruth.TVWACO TEXAS FERTILIZER COMPANY HIT BY DRONE/LASER STRIKE AFTER LAWSUIT FILED AGAINST MONSANTO!As... http://t.co/HHiWbDsKcS'
p33
ag33
ag33
ag33
ag33
ag33
ag33
ag33
ag33
aS'Waco Texas Fertilizer Company Hit By Drone/Laser Strike After Lawsuit Filed Against Monsanto! http://t.co/XWb9Phpkjt'
p34
ag34
ag34
ag34
ag34
ag34
ag34
ag34
ag34
aS'Waco Texas Fertilizer Company Hit By Drone/Laser Strike After Lawsuit Filed Against Monsanto!: http://t.co/N5JTTonVpj via @Volubrjotr'
p35
ag35
ag35
ag35
ag35
ag35
ag35
ag35
ag35
aS'Waco Texas Fertilizer Company Hit By Drone/Laser Strike After Lawsuit Filed Against Monsanto!: http://t.co/xzvAHpuwOU via @Volubrjotr'
p36
ag36
ag36
ag36
ag36
ag36
ag36
ag36
ag36
aS'Waco Texas Fertilizer Company Hit By Drone/Laser Strike After Lawsuit Filed Against Monsanto! http://t.co/pjCSIBsXuc'
p37
ag37
ag37
ag37
ag37
ag37
ag37
ag37
ag37
aS'Waco Texas Fertilizer Company Hit By Drone/Laser Strike After Lawsuit Filed Against Monsanto!http://t.co/Q46ggWkj4P'
p38
ag38
ag38
ag38
ag38
ag38
ag38
ag38
ag38
aS'Waco Texas Fertilizer Company Hit By Drone/Laser Strike After Lawsuit Filed Against Monsanto! http://t.co/Mw1iFRIZnw'
p39
ag39
ag39
ag39
ag39
ag39
ag39
ag39
ag39
aS'Waco Texas Fertilizer Company Hit By Drone/Laser Strike After Lawsuit Filed Against Monsanto! http://t.co/TZAlrMSf3w'
p40
ag40
ag40
ag40
ag40
ag40
ag40
ag40
ag40
aS'Waco Texas Fertilizer Company Hit By Drone/Laser Strike After Lawsuit Filed Against Monsanto! http://t.co/m1TiaMvuIh'
p41
ag41
ag41
ag41
ag41
ag41
ag41
ag41
ag41
aS'Waco Texas Fertilizer Company Hit By Drone/Laser Strike After Lawsuit Filed Against Monsanto!..http://t.co/SCVgRejbUF'
p42
ag42
ag42
ag42
ag42
ag42
ag42
ag42
ag42
aS'Waco Texas Fertilizer Company Hit By Drone/Laser Strike After Lawsuit Filed Against Monsanto! http://t.co/8qMUXRTLnx'
p43
ag43
ag43
ag43
ag43
ag43
ag43
ag43
ag43
aS'Waco Texas Fertilizer Company Hit By Drone/Laser Strike After Lawsuit Filed Against Monsanto! http://t.co/U9kCdUP3va'
p44
ag44
ag44
ag44
ag44
ag44
ag44
ag44
ag44
ag13
ag13
ag13
ag13
ag13
ag13
ag13
ag13
ag13
aS'RT @MadJewessWoman: Waco Texas Fertilizer Company Hit By Drone/Laser Strike After Lawsuit Filed Against Monsanto!: http://t.co/2uWfsI5vEf v'
p45
ag45
ag45
ag45
ag45
ag45
ag45
ag45
ag45
ag45
ag45
ag45
ag45
ag45
ag45
ag45
ag45
ag45
as.